target datalayout = "e-m:e-p270:32:32-p271:32:32-p272:64:64-i64:64-i128:128-f80:128-n8:16:32:64-S128"
target triple = "x86_64-pc-linux-gnu"

%"struct.cv::Ptr" = type { %"class.std::shared_ptr" }
%"class.std::shared_ptr" = type { %"class.std::__shared_ptr" }
%"class.std::__shared_ptr" = type { ptr, %"class.std::__shared_count" }
%"class.std::__shared_count" = type { ptr }
%"class.cv::legacy::tracking::MultiTracker_Alt" = type { i32, %"class.std::vector", %"class.std::vector.12", %"class.std::vector.17" }
%"class.std::vector" = type { %"struct.std::_Vector_base" }
%"struct.std::_Vector_base" = type { %"struct.std::_Vector_base<cv::Ptr<cv::legacy::tracking::Tracker>, std::allocator<cv::Ptr<cv::legacy::tracking::Tracker>>>::_Vector_impl" }
%"struct.std::_Vector_base<cv::Ptr<cv::legacy::tracking::Tracker>, std::allocator<cv::Ptr<cv::legacy::tracking::Tracker>>>::_Vector_impl" = type { %"struct.std::_Vector_base<cv::Ptr<cv::legacy::tracking::Tracker>, std::allocator<cv::Ptr<cv::legacy::tracking::Tracker>>>::_Vector_impl_data" }
%"struct.std::_Vector_base<cv::Ptr<cv::legacy::tracking::Tracker>, std::allocator<cv::Ptr<cv::legacy::tracking::Tracker>>>::_Vector_impl_data" = type { ptr, ptr, ptr }
%"class.std::vector.12" = type { %"struct.std::_Vector_base.13" }
%"struct.std::_Vector_base.13" = type { %"struct.std::_Vector_base<cv::Rect_<double>, std::allocator<cv::Rect_<double>>>::_Vector_impl" }
%"struct.std::_Vector_base<cv::Rect_<double>, std::allocator<cv::Rect_<double>>>::_Vector_impl" = type { %"struct.std::_Vector_base<cv::Rect_<double>, std::allocator<cv::Rect_<double>>>::_Vector_impl_data" }
%"struct.std::_Vector_base<cv::Rect_<double>, std::allocator<cv::Rect_<double>>>::_Vector_impl_data" = type { ptr, ptr, ptr }
%"class.std::vector.17" = type { %"struct.std::_Vector_base.18" }
%"struct.std::_Vector_base.18" = type { %"struct.std::_Vector_base<cv::Scalar_<double>, std::allocator<cv::Scalar_<double>>>::_Vector_impl" }
%"struct.std::_Vector_base<cv::Scalar_<double>, std::allocator<cv::Scalar_<double>>>::_Vector_impl" = type { %"struct.std::_Vector_base<cv::Scalar_<double>, std::allocator<cv::Scalar_<double>>>::_Vector_impl_data" }
%"struct.std::_Vector_base<cv::Scalar_<double>, std::allocator<cv::Scalar_<double>>>::_Vector_impl_data" = type { ptr, ptr, ptr }
%"class.cv::Rect_" = type { double, double, double, double }

; Function Attrs: mustprogress nounwind uwtable
define linkonce_odr hidden noundef ptr @_ZNKSt12__shared_ptrIN2cv6legacy8tracking7TrackerELN9__gnu_cxx12_Lock_policyE2EE3getEv(ptr noundef nonnull align 8 dereferenceable(16) %0) #7 comdat align 2 {
  %2 = alloca ptr, align 8
  store ptr %0, ptr %2, align 8, !tbaa !36
  %3 = load ptr, ptr %2, align 8
  %4 = getelementptr inbounds nuw %"class.std::__shared_ptr", ptr %3, i32 0, i32 0
  %5 = load ptr, ptr %4, align 8, !tbaa !38
  ret ptr %5
}

; Function Attrs: mustprogress nounwind uwtable
define linkonce_odr hidden noundef nonnull align 8 dereferenceable(32) ptr @_ZNSt6vectorIN2cv5Rect_IdEESaIS2_EEixEm(ptr noundef nonnull align 8 dereferenceable(24) %0, i64 noundef %1) #7 comdat align 2 {
  %3 = alloca ptr, align 8
  %4 = alloca i64, align 8
  store ptr %0, ptr %3, align 8, !tbaa !43
  store i64 %1, ptr %4, align 8, !tbaa !59
  %5 = load ptr, ptr %3, align 8
  %6 = getelementptr inbounds nuw %"struct.std::_Vector_base.13", ptr %5, i32 0, i32 0
  %7 = getelementptr inbounds nuw %"struct.std::_Vector_base<cv::Rect_<double>, std::allocator<cv::Rect_<double>>>::_Vector_impl_data", ptr %6, i32 0, i32 0
  %8 = load ptr, ptr %7, align 8, !tbaa !61
  %9 = load i64, ptr %4, align 8, !tbaa !59
  %10 = getelementptr inbounds nuw %"class.cv::Rect_", ptr %8, i64 %9
  ret ptr %10
}

; Function Attrs: mustprogress nounwind uwtable
define linkonce_odr hidden noundef ptr @_ZNK2cv3PtrINS_6legacy8tracking7TrackerEEptEv(ptr noundef nonnull align 8 dereferenceable(16) %0) #7 comdat align 2 {
  %2 = alloca ptr, align 8
  store ptr %0, ptr %2, align 8, !tbaa !19
  %3 = load ptr, ptr %2, align 8
  %4 = call noundef ptr @_ZNKSt12__shared_ptrIN2cv6legacy8tracking7TrackerELN9__gnu_cxx12_Lock_policyE2EE3getEv(ptr noundef nonnull align 8 dereferenceable(16) %3) #3
  ret ptr %4
}

; Function Attrs: mustprogress nounwind uwtable
define linkonce_odr hidden noundef nonnull align 8 dereferenceable(16) ptr @_ZNSt6vectorIN2cv3PtrINS0_6legacy8tracking7TrackerEEESaIS5_EEixEm(ptr noundef nonnull align 8 dereferenceable(24) %0, i64 noundef %1) #7 comdat align 2 {
  %3 = alloca ptr, align 8
  %4 = alloca i64, align 8
  store ptr %0, ptr %3, align 8, !tbaa !47
  store i64 %1, ptr %4, align 8, !tbaa !59
  %5 = load ptr, ptr %3, align 8
  %6 = getelementptr inbounds nuw %"struct.std::_Vector_base", ptr %5, i32 0, i32 0
  %7 = getelementptr inbounds nuw %"struct.std::_Vector_base<cv::Ptr<cv::legacy::tracking::Tracker>, std::allocator<cv::Ptr<cv::legacy::tracking::Tracker>>>::_Vector_impl_data", ptr %6, i32 0, i32 0
  %8 = load ptr, ptr %7, align 8, !tbaa !58
  %9 = load i64, ptr %4, align 8, !tbaa !59
  %10 = getelementptr inbounds nuw %"struct.cv::Ptr", ptr %8, i64 %9
  ret ptr %10
}

; Function Attrs: mustprogress nounwind uwtable
define linkonce_odr hidden noundef i64 @_ZNKSt6vectorIN2cv3PtrINS0_6legacy8tracking7TrackerEEESaIS5_EE4sizeEv(ptr noundef nonnull align 8 dereferenceable(24) %0) #7 comdat align 2 {
  %2 = alloca ptr, align 8
  store ptr %0, ptr %2, align 8, !tbaa !47
  %3 = load ptr, ptr %2, align 8
  %4 = getelementptr inbounds nuw %"struct.std::_Vector_base", ptr %3, i32 0, i32 0
  %5 = getelementptr inbounds nuw %"struct.std::_Vector_base<cv::Ptr<cv::legacy::tracking::Tracker>, std::allocator<cv::Ptr<cv::legacy::tracking::Tracker>>>::_Vector_impl_data", ptr %4, i32 0, i32 1
  %6 = load ptr, ptr %5, align 8, !tbaa !49
  %7 = getelementptr inbounds nuw %"struct.std::_Vector_base", ptr %3, i32 0, i32 0
  %8 = getelementptr inbounds nuw %"struct.std::_Vector_base<cv::Ptr<cv::legacy::tracking::Tracker>, std::allocator<cv::Ptr<cv::legacy::tracking::Tracker>>>::_Vector_impl_data", ptr %7, i32 0, i32 0
  %9 = load ptr, ptr %8, align 8, !tbaa !58
  %10 = ptrtoint ptr %6 to i64
  %11 = ptrtoint ptr %9 to i64
  %12 = sub i64 %10, %11
  %13 = sdiv exact i64 %12, 16
  ret i64 %13
}

; Function Attrs: mustprogress uwtable
define noundef zeroext i1 @_ZN2cv6legacy8tracking16MultiTracker_Alt6updateERKNS_11_InputArrayE(ptr noundef nonnull align 8 dereferenceable(80) %0, ptr noundef nonnull align 8 dereferenceable(24) %1) #6 align 2 {
  %3 = alloca i1, align 1
  %4 = alloca ptr, align 8
  %5 = alloca ptr, align 8
  %6 = alloca i32, align 4
  %7 = alloca i32, align 4
  store ptr %0, ptr %4, align 8, !tbaa !13
  store ptr %1, ptr %5, align 8, !tbaa !15
  %8 = load ptr, ptr %4, align 8
  call void @llvm.lifetime.start.p0(i64 4, ptr %6) #3
  store i32 0, ptr %6, align 4, !tbaa !8
  br label %9

9:                                                ; preds = %30, %2
  %10 = load i32, ptr %6, align 4, !tbaa !8
  %11 = getelementptr inbounds nuw %"class.cv::legacy::tracking::MultiTracker_Alt", ptr %8, i32 0, i32 1
  %12 = call noundef i64 @_ZNKSt6vectorIN2cv3PtrINS0_6legacy8tracking7TrackerEEESaIS5_EE4sizeEv(ptr noundef nonnull align 8 dereferenceable(24) %11) #3
  %13 = trunc i64 %12 to i32
  %14 = icmp slt i32 %10, %13
  br i1 %14, label %16, label %15

15:                                               ; preds = %9
  store i32 2, ptr %7, align 4
  br label %33

16:                                               ; preds = %9
  %17 = getelementptr inbounds nuw %"class.cv::legacy::tracking::MultiTracker_Alt", ptr %8, i32 0, i32 1
  %18 = load i32, ptr %6, align 4, !tbaa !8
  %19 = sext i32 %18 to i64
  %20 = call noundef nonnull align 8 dereferenceable(16) ptr @_ZNSt6vectorIN2cv3PtrINS0_6legacy8tracking7TrackerEEESaIS5_EEixEm(ptr noundef nonnull align 8 dereferenceable(24) %17, i64 noundef %19) #3
  %21 = call noundef ptr @_ZNK2cv3PtrINS_6legacy8tracking7TrackerEEptEv(ptr noundef nonnull align 8 dereferenceable(16) %20) #3
  %22 = load ptr, ptr %5, align 8, !tbaa !15
  %23 = getelementptr inbounds nuw %"class.cv::legacy::tracking::MultiTracker_Alt", ptr %8, i32 0, i32 2
  %24 = load i32, ptr %6, align 4, !tbaa !8
  %25 = sext i32 %24 to i64
  %26 = call noundef nonnull align 8 dereferenceable(32) ptr @_ZNSt6vectorIN2cv5Rect_IdEESaIS2_EEixEm(ptr noundef nonnull align 8 dereferenceable(24) %23, i64 noundef %25) #3
  %27 = call noundef zeroext i1 @_ZN2cv6legacy8tracking7Tracker6updateERKNS_11_InputArrayERNS_5Rect_IdEE(ptr noundef nonnull align 8 dereferenceable(64) %21, ptr noundef nonnull align 8 dereferenceable(24) %22, ptr noundef nonnull align 8 dereferenceable(32) %26)
  br i1 %27, label %29, label %28

28:                                               ; preds = %16
  store i1 false, ptr %3, align 1
  store i32 1, ptr %7, align 4
  br label %33

29:                                               ; preds = %16
  br label %30

30:                                               ; preds = %29
  %31 = load i32, ptr %6, align 4, !tbaa !8
  %32 = add nsw i32 %31, 1
  store i32 %32, ptr %6, align 4, !tbaa !8
  br label %9, !llvm.loop !56

33:                                               ; preds = %28, %15
  call void @llvm.lifetime.end.p0(i64 4, ptr %6) #3
  %34 = load i32, ptr %7, align 4
  switch i32 %34, label %38 [
    i32 2, label %35
    i32 1, label %36
  ]

35:                                               ; preds = %33
  store i1 true, ptr %3, align 1
  br label %36

36:                                               ; preds = %35, %33
  %37 = load i1, ptr %3, align 1
  ret i1 %37

38:                                               ; preds = %33
  unreachable
}