; Function Attrs: mustprogress uwtable
define noundef zeroext i1 @_ZN2cv6legacy8tracking16MultiTracker_Alt6updateERKNS_11_InputArrayE(ptr noundef nonnull readonly align 8 captures(none) dereferenceable(80) %0, ptr noundef nonnull align 8 dereferenceable(24) %1) local_unnamed_addr #4 align 2 {
  %3 = getelementptr inbounds nuw i8, ptr %0, i64 8
  %4 = getelementptr inbounds nuw i8, ptr %0, i64 16
  %5 = load ptr, ptr %4, align 8, !tbaa !29
  %6 = load ptr, ptr %3, align 8, !tbaa !54
  %7 = ptrtoint ptr %5 to i64
  %8 = ptrtoint ptr %6 to i64
  %9 = sub i64 %7, %8
  %10 = lshr exact i64 %9, 4
  %11 = trunc i64 %10 to i32
  %12 = icmp slt i32 %11, 1
  br i1 %12, label %._crit_edge, label %.lr.ph

.lr.ph:                                           ; preds = %2
  %13 = getelementptr inbounds nuw i8, ptr %0, i64 32
  br label %21

14:                                               ; preds = %21
  %indvars.iv.next = add nuw nsw i64 %indvars.iv, 1
  %15 = load ptr, ptr %4, align 8, !tbaa !29
  %16 = load ptr, ptr %3, align 8, !tbaa !54
  %17 = ptrtoint ptr %15 to i64
  %18 = ptrtoint ptr %16 to i64
  %19 = sub i64 %17, %18
  %sext = shl i64 %19, 28
  %20 = ashr i64 %sext, 32
  %.not = icmp slt i64 %indvars.iv.next, %20
  br i1 %.not, label %21, label %._crit_edge, !llvm.loop !55

21:                                               ; preds = %.lr.ph, %14
  %indvars.iv = phi i64 [ 0, %.lr.ph ], [ %indvars.iv.next, %14 ]
  %22 = phi ptr [ %6, %.lr.ph ], [ %16, %14 ]
  %23 = getelementptr inbounds nuw %"struct.cv::Ptr", ptr %22, i64 %indvars.iv
  %24 = load ptr, ptr %23, align 8, !tbaa !3
  %25 = load ptr, ptr %13, align 8, !tbaa !22
  %26 = getelementptr inbounds nuw %"class.cv::Rect_", ptr %25, i64 %indvars.iv
  %27 = tail call noundef zeroext i1 @_ZN2cv6legacy8tracking7Tracker6updateERKNS_11_InputArrayERNS_5Rect_IdEE(ptr noundef nonnull align 8 dereferenceable(64) %24, ptr noundef nonnull align 8 dereferenceable(24) %1, ptr noundef nonnull align 8 dereferenceable(32) %26)
  br i1 %27, label %14, label %._crit_edge

._crit_edge:                                      ; preds = %14, %21, %2
  %.lcssa = phi i1 [ true, %2 ], [ %27, %21 ], [ %27, %14 ]
  ret i1 %.lcssa
}